; Function Attrs: mustprogress nounwind uwtable
define internal fastcc void @"_ZSt25__unguarded_linear_insertIN9__gnu_cxx17__normal_iteratorIPNSt7__cxx1112basic_stringIcSt11char_traitsIcESaIcEEESt6vectorIS7_SaIS7_EEEENS0_5__ops14_Val_comp_iterIZNK5clang6driver6Driver21HandleAutocompletionsEN4llvm9StringRefEE3$_0EEEvT_T0_"(ptr nonnull %0) unnamed_addr #0 {
  %2 = alloca %"class.llvm::StringRef", align 8
  %3 = alloca %"class.std::__cxx11::basic_string", align 8
  call void @_ZNSt7__cxx1112basic_stringIcSt11char_traitsIcESaIcEEC1EOS4_(ptr noundef nonnull align 8 dereferenceable(32) %3, ptr noundef nonnull align 8 dereferenceable(32) %0) #30
  %4 = getelementptr inbounds nuw i8, ptr %2, i64 8
  br label %5

5:                                                ; preds = %19, %1
  %.sroa.03.0 = phi ptr [ %0, %1 ], [ %.sroa.0.0, %19 ]
  %.sroa.0.0 = getelementptr inbounds i8, ptr %.sroa.03.0, i64 -32
  %6 = call noundef ptr @_ZNKSt7__cxx1112basic_stringIcSt11char_traitsIcESaIcEE4dataEv(ptr noundef nonnull align 8 dereferenceable(32) %3) #30
  %7 = call noundef i64 @_ZNKSt7__cxx1112basic_stringIcSt11char_traitsIcESaIcEE6lengthEv(ptr noundef nonnull align 8 dereferenceable(32) %3) #30
  %8 = call noundef ptr @_ZNKSt7__cxx1112basic_stringIcSt11char_traitsIcESaIcEE4dataEv(ptr noundef nonnull align 8 dereferenceable(32) %.sroa.0.0) #30
  %9 = call noundef i64 @_ZNKSt7__cxx1112basic_stringIcSt11char_traitsIcESaIcEE6lengthEv(ptr noundef nonnull align 8 dereferenceable(32) %.sroa.0.0) #30
  call void @llvm.lifetime.start.p0(i64 16, ptr nonnull %2)
  store ptr %6, ptr %2, align 8
  store i64 %7, ptr %4, align 8
  %10 = call noundef i32 @_ZNK4llvm9StringRef19compare_insensitiveES0_(ptr noundef nonnull align 8 dereferenceable(16) %2, ptr %8, i64 %9) #30
  %.not.i.i = icmp eq i32 %10, 0
  br i1 %.not.i.i, label %13, label %11

11:                                               ; preds = %5
  %12 = icmp slt i32 %10, 0
  call void @llvm.lifetime.end.p0(i64 16, ptr nonnull %2)
  br i1 %12, label %19, label %21

13:                                               ; preds = %5
  %14 = load i64, ptr %4, align 8
  %.sroa.speculated.i.i.i = call i64 @llvm.umin.i64(i64 %9, i64 %14)
  %15 = icmp eq i64 %.sroa.speculated.i.i.i, 0
  br i1 %15, label %"_ZN9__gnu_cxx5__ops14_Val_comp_iterIZNK5clang6driver6Driver21HandleAutocompletionsEN4llvm9StringRefEE3$_0EclINSt7__cxx1112basic_stringIcSt11char_traitsIcESaIcEEENS_17__normal_iteratorIPSF_St6vectorISF_SaISF_EEEEEEbRT_T0_.exit", label %_ZN4llvm9StringRef13compareMemoryEPKcS2_m.exit.i.i.i

_ZN4llvm9StringRef13compareMemoryEPKcS2_m.exit.i.i.i: ; preds = %13
  %16 = load ptr, ptr %2, align 8
  %17 = call i32 @memcmp(ptr noundef %16, ptr noundef %8, i64 noundef %.sroa.speculated.i.i.i) #32
  %.not.i.i.i = icmp eq i32 %17, 0
  br i1 %.not.i.i.i, label %"_ZN9__gnu_cxx5__ops14_Val_comp_iterIZNK5clang6driver6Driver21HandleAutocompletionsEN4llvm9StringRefEE3$_0EclINSt7__cxx1112basic_stringIcSt11char_traitsIcESaIcEEENS_17__normal_iteratorIPSF_St6vectorISF_SaISF_EEEEEEbRT_T0_.exit", label %18

18:                                               ; preds = %_ZN4llvm9StringRef13compareMemoryEPKcS2_m.exit.i.i.i
  %.inv.i.i.i = icmp sgt i32 %17, -1
  call void @llvm.lifetime.end.p0(i64 16, ptr nonnull %2)
  br i1 %.inv.i.i.i, label %19, label %21

"_ZN9__gnu_cxx5__ops14_Val_comp_iterIZNK5clang6driver6Driver21HandleAutocompletionsEN4llvm9StringRefEE3$_0EclINSt7__cxx1112basic_stringIcSt11char_traitsIcESaIcEEENS_17__normal_iteratorIPSF_St6vectorISF_SaISF_EEEEEEbRT_T0_.exit": ; preds = %13, %_ZN4llvm9StringRef13compareMemoryEPKcS2_m.exit.i.i.i
  %spec.select.i.i = icmp ugt i64 %14, %9
  call void @llvm.lifetime.end.p0(i64 16, ptr nonnull %2)
  br i1 %spec.select.i.i, label %19, label %21

19:                                               ; preds = %18, %11, %"_ZN9__gnu_cxx5__ops14_Val_comp_iterIZNK5clang6driver6Driver21HandleAutocompletionsEN4llvm9StringRefEE3$_0EclINSt7__cxx1112basic_stringIcSt11char_traitsIcESaIcEEENS_17__normal_iteratorIPSF_St6vectorISF_SaISF_EEEEEEbRT_T0_.exit"
  %20 = call noundef nonnull align 8 dereferenceable(32) ptr @_ZNSt7__cxx1112basic_stringIcSt11char_traitsIcESaIcEEaSEOS4_(ptr noundef nonnull align 8 dereferenceable(32) %.sroa.03.0, ptr noundef nonnull align 8 dereferenceable(32) %.sroa.0.0) #30
  br label %5, !llvm.loop !1695

21:                                               ; preds = %18, %11, %"_ZN9__gnu_cxx5__ops14_Val_comp_iterIZNK5clang6driver6Driver21HandleAutocompletionsEN4llvm9StringRefEE3$_0EclINSt7__cxx1112basic_stringIcSt11char_traitsIcESaIcEEENS_17__normal_iteratorIPSF_St6vectorISF_SaISF_EEEEEEbRT_T0_.exit"
  %22 = call noundef nonnull align 8 dereferenceable(32) ptr @_ZNSt7__cxx1112basic_stringIcSt11char_traitsIcESaIcEEaSEOS4_(ptr noundef nonnull align 8 dereferenceable(32) %.sroa.03.0, ptr noundef nonnull align 8 dereferenceable(32) %3) #30
  call void @_ZNSt7__cxx1112basic_stringIcSt11char_traitsIcESaIcEED1Ev(ptr noundef nonnull align 8 dereferenceable(32) %3) #30
  ret void
}